; Function Attrs: mustprogress nounwind uwtable
define hidden void @_ZN12Continuation26continuation_bottom_senderEP10JavaThreadRK5framePl(ptr dead_on_unwind noalias writable sret(%class.frame) align 8 %0, ptr nocapture noundef readonly %1, ptr nocapture noundef nonnull readonly align 8 dereferenceable(56) %2, ptr noundef %3) local_unnamed_addr #0 align 2 {
  %5 = load ptr, ptr %2, align 8
  %6 = getelementptr inbounds i8, ptr %1, i64 1336
  br label %7

7:                                                ; preds = %7, %4
  %.0.in.i = phi ptr [ %6, %4 ], [ %9, %7 ]
  %.0.i = load ptr, ptr %.0.in.i, align 8
  %.not.i = icmp eq ptr %.0.i, null
  %8 = icmp ugt ptr %.0.i, %5
  %or.cond.i = or i1 %.not.i, %8
  %9 = getelementptr inbounds i8, ptr %.0.i, i64 8
  br i1 %or.cond.i, label %_ZN12Continuation29get_continuation_entry_for_spEP10JavaThreadPl.exit, label %7, !llvm.loop !13

_ZN12Continuation29get_continuation_entry_for_spEP10JavaThreadPl.exit: ; preds = %7
  tail call void @_ZNK17ContinuationEntry8to_frameEv(ptr dead_on_unwind writable sret(%class.frame) align 8 %0, ptr noundef nonnull align 8 dereferenceable(60) %.0.i)
  %10 = load ptr, ptr @_ZN19AbstractInterpreter5_codeE, align 8
  %.not.i.i = icmp eq ptr %10, null
  br i1 %.not.i.i, label %_ZNK5frame20is_interpreted_frameEv.exit.thread, label %_ZNK5frame20is_interpreted_frameEv.exit

_ZNK5frame20is_interpreted_frameEv.exit:          ; preds = %_ZN12Continuation29get_continuation_entry_for_spEP10JavaThreadPl.exit
  %11 = getelementptr inbounds i8, ptr %2, i64 8
  %12 = load ptr, ptr %11, align 8
  %13 = getelementptr inbounds i8, ptr %10, i64 8
  %14 = load ptr, ptr %13, align 8
  %.not.i.i.i = icmp ule ptr %14, %12
  %15 = getelementptr inbounds i8, ptr %10, i64 20
  %16 = load i32, ptr %15, align 4
  %17 = sext i32 %16 to i64
  %18 = getelementptr inbounds i8, ptr %14, i64 %17
  %19 = icmp ugt ptr %18, %12
  %20 = select i1 %.not.i.i.i, i1 %19, i1 false
  br i1 %20, label %21, label %_ZNK5frame20is_interpreted_frameEv.exit.thread

21:                                               ; preds = %_ZNK5frame20is_interpreted_frameEv.exit
  store ptr %3, ptr %0, align 8
  br label %_ZNK5frame20is_interpreted_frameEv.exit.thread

_ZNK5frame20is_interpreted_frameEv.exit.thread:   ; preds = %_ZN12Continuation29get_continuation_entry_for_spEP10JavaThreadPl.exit, %21, %_ZNK5frame20is_interpreted_frameEv.exit
  ret void
}